target datalayout = "e-m:e-p270:32:32-p271:32:32-p272:64:64-i64:64-i128:128-f80:128-n8:16:32:64-S128"
target triple = "x86_64-pc-linux-gnu"

%struct.WOLFSSL = type <{ ptr, ptr, ptr, ptr, [48 x i8], [48 x i8], ptr, ptr, ptr, ptr, ptr, ptr, ptr, ptr, ptr, ptr, ptr, ptr, ptr, i32, [4 x i8], %struct.WOLFSSL_CIPHER, ptr, %struct.Ciphers, %struct.Ciphers, [8 x i8], %struct.Buffers, ptr, ptr, %struct.WOLFSSL_ALERT_HISTORY, %struct.WOLFSSL_ALERT, i32, i32, i32, i32, i32, i32, i32, i16, [2 x i8], i32, i8, %struct.RecordLayerHeader, %struct.MsgsReceived, %struct.ProtocolVersion, %struct.ProtocolVersion, %struct.CipherSpecs, [2 x i8], %struct.Keys, %struct.Options, ptr, i8, i8, i16, [10 x i16], i8, i8, i16, i16, [38 x i8], i32, i32, [4 x i8], ptr, i8, i8, [6 x i8], ptr, ptr, i16, i8, i8, i32, i8, [3 x i8], i32, %struct.OneTimeAuth, ptr }>
%struct.WOLFSSL_CIPHER = type { i8, i8, ptr }
%struct.Ciphers = type { ptr, ptr, ptr, ptr, i8, i8 }
%struct.Buffers = type { %struct.bufferStatic, %struct.bufferStatic, %struct.WOLFSSL_BUFFER_INFO, %struct.WOLFSSL_BUFFER_INFO, %struct.WOLFSSL_BUFFER_INFO, %struct.WOLFSSL_BUFFER_INFO, i32, i32, i8, i8, i8, i8, %struct.WOLFSSL_BUFFER_INFO, %struct.WOLFSSL_BUFFER_INFO, %struct.WOLFSSL_BUFFER_INFO, %struct.WOLFSSL_BUFFER_INFO, ptr, ptr, ptr, i8, i8, i32, i32, ptr, i32, [1 x ptr] }
%struct.bufferStatic = type { [5 x i8], ptr, i32, i32, i32, i8, i8 }
%struct.WOLFSSL_BUFFER_INFO = type { ptr, i32 }
%struct.WOLFSSL_ALERT_HISTORY = type { %struct.WOLFSSL_ALERT, %struct.WOLFSSL_ALERT }
%struct.WOLFSSL_ALERT = type { i32, i32 }
%struct.RecordLayerHeader = type { i8, i8, i8, [2 x i8] }
%struct.MsgsReceived = type { i32 }
%struct.ProtocolVersion = type { i8, i8 }
%struct.CipherSpecs = type { i16, i16, i16, i16, i8, i8, i8, i8, i8, i8, i8, i8 }
%struct.Keys = type { [64 x i8], [64 x i8], [32 x i8], [32 x i8], [16 x i8], [16 x i8], [8 x i8], [12 x i8], [12 x i8], i32, i32, i32, i32, i32, i32, i8, i8, i8, i8 }
%struct.Options = type { i64, i64, i8, i8, i8, i8, i8, i8, i8, i8, i8, i8, i8, i8, i8, i8, i8, i8, i8, i8, i8, i8, i8, i16, i16, i16, i16, i16, i8 }
%struct.OneTimeAuth = type { ptr, i8 }
%struct.Hmac = type { %union.wc_Hashes, [36 x i32], [36 x i32], [16 x i32], ptr, i8, i8 }
%union.wc_Hashes = type { %struct.wc_Sha3 }
%struct.wc_Sha3 = type { [25 x i64], [200 x i8], i8, ptr }

; Function Attrs: inlinehint nounwind uwtable
define internal void @c16toa(i16 noundef zeroext %0, ptr noundef %1) #5 {
  %3 = alloca i16, align 2
  %4 = alloca ptr, align 8
  store i16 %0, ptr %3, align 2, !tbaa !73
  store ptr %1, ptr %4, align 8, !tbaa !8
  %5 = load i16, ptr %3, align 2, !tbaa !73
  %6 = zext i16 %5 to i32
  %7 = ashr i32 %6, 8
  %8 = and i32 %7, 255
  %9 = trunc i32 %8 to i8
  %10 = load ptr, ptr %4, align 8, !tbaa !8
  %11 = getelementptr inbounds i8, ptr %10, i64 0
  store i8 %9, ptr %11, align 1, !tbaa !55
  %12 = load i16, ptr %3, align 2, !tbaa !73
  %13 = zext i16 %12 to i32
  %14 = and i32 %13, 255
  %15 = trunc i32 %14 to i8
  %16 = load ptr, ptr %4, align 8, !tbaa !8
  %17 = getelementptr inbounds i8, ptr %16, i64 1
  store i8 %15, ptr %17, align 1, !tbaa !55
  ret void
}

; Function Attrs: nounwind uwtable
define i32 @wolfSSL_GetHmacType_ex(ptr noundef %0) #0 {
  %2 = alloca i32, align 4
  %3 = alloca ptr, align 8
  store ptr %0, ptr %3, align 8, !tbaa !90
  %4 = load ptr, ptr %3, align 8, !tbaa !90
  %5 = icmp eq ptr %4, null
  br i1 %5, label %6, label %7

6:                                                ; preds = %1
  store i32 -173, ptr %2, align 4
  br label %17

7:                                                ; preds = %1
  %8 = load ptr, ptr %3, align 8, !tbaa !90
  %9 = getelementptr inbounds nuw %struct.CipherSpecs, ptr %8, i32 0, i32 6
  %10 = load i8, ptr %9, align 2, !tbaa !92
  %11 = zext i8 %10 to i32
  switch i32 %11, label %16 [
    i32 1, label %12
    i32 4, label %13
    i32 5, label %14
    i32 2, label %15
  ]

12:                                               ; preds = %7
  store i32 3, ptr %2, align 4
  br label %17

13:                                               ; preds = %7
  store i32 6, ptr %2, align 4
  br label %17

14:                                               ; preds = %7
  store i32 7, ptr %2, align 4
  br label %17

15:                                               ; preds = %7
  store i32 4, ptr %2, align 4
  br label %17

16:                                               ; preds = %7
  store i32 -1, ptr %2, align 4
  br label %17

17:                                               ; preds = %16, %15, %14, %13, %12, %6
  %18 = load i32, ptr %2, align 4
  ret i32 %18
}

; Function Attrs: nounwind uwtable
define i32 @wolfSSL_SetTlsHmacInner(ptr noundef %0, ptr noundef %1, i32 noundef %2, i32 noundef %3, i32 noundef %4) #0 {
  %6 = alloca i32, align 4
  %7 = alloca ptr, align 8
  %8 = alloca ptr, align 8
  %9 = alloca i32, align 4
  %10 = alloca i32, align 4
  %11 = alloca i32, align 4
  store ptr %0, ptr %7, align 8, !tbaa !3
  store ptr %1, ptr %8, align 8, !tbaa !8
  store i32 %2, ptr %9, align 4, !tbaa !12
  store i32 %3, ptr %10, align 4, !tbaa !12
  store i32 %4, ptr %11, align 4, !tbaa !12
  %12 = load ptr, ptr %7, align 8, !tbaa !3
  %13 = icmp eq ptr %12, null
  br i1 %13, label %17, label %14

14:                                               ; preds = %5
  %15 = load ptr, ptr %8, align 8, !tbaa !8
  %16 = icmp eq ptr %15, null
  br i1 %16, label %17, label %18

17:                                               ; preds = %14, %5
  store i32 -173, ptr %6, align 4
  br label %51

18:                                               ; preds = %14
  %19 = load i32, ptr %10, align 4, !tbaa !12
  %20 = icmp eq i32 %19, 25
  br i1 %20, label %21, label %24

21:                                               ; preds = %18
  br label %22

22:                                               ; preds = %21
  br label %23

23:                                               ; preds = %22
  store i32 -173, ptr %6, align 4
  br label %51

24:                                               ; preds = %18
  %25 = load ptr, ptr %8, align 8, !tbaa !8
  call void @llvm.memset.p0.i64(ptr align 1 %25, i8 0, i64 13, i1 false)
  %26 = load ptr, ptr %7, align 8, !tbaa !3
  %27 = load i32, ptr %11, align 4, !tbaa !12
  %28 = load ptr, ptr %8, align 8, !tbaa !8
  call void @WriteSEQ(ptr noundef %26, i32 noundef %27, ptr noundef %28)
  %29 = load i32, ptr %10, align 4, !tbaa !12
  %30 = trunc i32 %29 to i8
  %31 = load ptr, ptr %8, align 8, !tbaa !8
  %32 = getelementptr inbounds i8, ptr %31, i64 8
  store i8 %30, ptr %32, align 1, !tbaa !55
  %33 = load ptr, ptr %7, align 8, !tbaa !3
  %34 = getelementptr inbounds nuw %struct.WOLFSSL, ptr %33, i32 0, i32 44
  %35 = getelementptr inbounds nuw %struct.ProtocolVersion, ptr %34, i32 0, i32 0
  %36 = load i8, ptr %35, align 2, !tbaa !93
  %37 = load ptr, ptr %8, align 8, !tbaa !8
  %38 = getelementptr inbounds i8, ptr %37, i64 9
  store i8 %36, ptr %38, align 1, !tbaa !55
  %39 = load ptr, ptr %7, align 8, !tbaa !3
  %40 = getelementptr inbounds nuw %struct.WOLFSSL, ptr %39, i32 0, i32 44
  %41 = getelementptr inbounds nuw %struct.ProtocolVersion, ptr %40, i32 0, i32 1
  %42 = load i8, ptr %41, align 1, !tbaa !94
  %43 = load ptr, ptr %8, align 8, !tbaa !8
  %44 = getelementptr inbounds i8, ptr %43, i64 10
  store i8 %42, ptr %44, align 1, !tbaa !55
  %45 = load i32, ptr %9, align 4, !tbaa !12
  %46 = trunc i32 %45 to i16
  %47 = load ptr, ptr %8, align 8, !tbaa !8
  %48 = getelementptr inbounds i8, ptr %47, i64 8
  %49 = getelementptr inbounds i8, ptr %48, i64 1
  %50 = getelementptr inbounds i8, ptr %49, i64 2
  call void @c16toa(i16 noundef zeroext %46, ptr noundef %50)
  store i32 0, ptr %6, align 4
  br label %51

51:                                               ; preds = %24, %23, %17
  %52 = load i32, ptr %6, align 4
  ret i32 %52
}

; Function Attrs: nounwind uwtable
define i32 @wolfSSL_GetHmacType(ptr noundef %0) #0 {
  %2 = alloca i32, align 4
  %3 = alloca ptr, align 8
  store ptr %0, ptr %3, align 8, !tbaa !3
  %4 = load ptr, ptr %3, align 8, !tbaa !3
  %5 = icmp eq ptr %4, null
  br i1 %5, label %6, label %7

6:                                                ; preds = %1
  store i32 -173, ptr %2, align 4
  br label %11

7:                                                ; preds = %1
  %8 = load ptr, ptr %3, align 8, !tbaa !3
  %9 = getelementptr inbounds nuw %struct.WOLFSSL, ptr %8, i32 0, i32 46
  %10 = call i32 @wolfSSL_GetHmacType_ex(ptr noundef %9)
  store i32 %10, ptr %2, align 4
  br label %11

11:                                               ; preds = %7, %6
  %12 = load i32, ptr %2, align 4
  ret i32 %12
}

; Function Attrs: nounwind uwtable
define internal i32 @TLS_hmac_SetInner(ptr noundef %0, ptr noundef %1, ptr noundef %2, i32 noundef %3, i32 noundef %4, i32 noundef %5, i32 noundef %6) #0 {
  %8 = alloca ptr, align 8
  %9 = alloca ptr, align 8
  %10 = alloca ptr, align 8
  %11 = alloca i32, align 4
  %12 = alloca i32, align 4
  %13 = alloca i32, align 4
  %14 = alloca i32, align 4
  store ptr %0, ptr %8, align 8, !tbaa !3
  store ptr %1, ptr %9, align 8, !tbaa !8
  store ptr %2, ptr %10, align 8, !tbaa !10
  store i32 %3, ptr %11, align 4, !tbaa !12
  store i32 %4, ptr %12, align 4, !tbaa !12
  store i32 %5, ptr %13, align 4, !tbaa !12
  store i32 %6, ptr %14, align 4, !tbaa !12
  %15 = load ptr, ptr %10, align 8, !tbaa !10
  store i32 13, ptr %15, align 4, !tbaa !12
  %16 = load ptr, ptr %8, align 8, !tbaa !3
  %17 = load ptr, ptr %9, align 8, !tbaa !8
  %18 = load i32, ptr %11, align 4, !tbaa !12
  %19 = load i32, ptr %12, align 4, !tbaa !12
  %20 = load ptr, ptr %8, align 8, !tbaa !3
  %21 = getelementptr inbounds nuw %struct.WOLFSSL, ptr %20, i32 0, i32 49
  %22 = getelementptr inbounds nuw %struct.Options, ptr %21, i32 0, i32 1
  %23 = load i64, ptr %22, align 8
  %24 = lshr i64 %23, 17
  %25 = and i64 %24, 1
  %26 = trunc i64 %25 to i16
  %27 = icmp ne i16 %26, 0
  br i1 %27, label %30, label %28

28:                                               ; preds = %7
  %29 = load i32, ptr %13, align 4, !tbaa !12
  br label %32

30:                                               ; preds = %7
  %31 = load i32, ptr %14, align 4, !tbaa !12
  br label %32

32:                                               ; preds = %30, %28
  %33 = phi i32 [ %29, %28 ], [ %31, %30 ]
  %34 = call i32 @wolfSSL_SetTlsHmacInner(ptr noundef %16, ptr noundef %17, i32 noundef %18, i32 noundef %19, i32 noundef %33)
  ret i32 %34
}

; Function Attrs: nounwind uwtable
define i32 @TLS_hmac(ptr noundef %0, ptr noundef %1, ptr noundef %2, i32 noundef %3, i32 noundef %4, i32 noundef %5, i32 noundef %6, i32 noundef %7) #0 {
  %9 = alloca i32, align 4
  %10 = alloca ptr, align 8
  %11 = alloca ptr, align 8
  %12 = alloca ptr, align 8
  %13 = alloca i32, align 4
  %14 = alloca i32, align 4
  %15 = alloca i32, align 4
  %16 = alloca i32, align 4
  %17 = alloca i32, align 4
  %18 = alloca %struct.Hmac, align 16
  %19 = alloca [13 x i8], align 1
  %20 = alloca i32, align 4
  %21 = alloca i32, align 4
  %22 = alloca ptr, align 8
  %23 = alloca i32, align 4
  %24 = alloca i32, align 4
  store ptr %0, ptr %10, align 8, !tbaa !3
  store ptr %1, ptr %11, align 8, !tbaa !8
  store ptr %2, ptr %12, align 8, !tbaa !8
  store i32 %3, ptr %13, align 4, !tbaa !12
  store i32 %4, ptr %14, align 4, !tbaa !12
  store i32 %5, ptr %15, align 4, !tbaa !12
  store i32 %6, ptr %16, align 4, !tbaa !12
  store i32 %7, ptr %17, align 4, !tbaa !12
  call void @llvm.lifetime.start.p0(i64 784, ptr %18) #8
  call void @llvm.lifetime.start.p0(i64 13, ptr %19) #8
  call void @llvm.lifetime.start.p0(i64 4, ptr %20) #8
  store i32 13, ptr %20, align 4, !tbaa !12
  call void @llvm.lifetime.start.p0(i64 4, ptr %21) #8
  store i32 0, ptr %21, align 4, !tbaa !12
  call void @llvm.lifetime.start.p0(i64 8, ptr %22) #8
  store ptr null, ptr %22, align 8, !tbaa !8
  call void @llvm.lifetime.start.p0(i64 4, ptr %23) #8
  store i32 0, ptr %23, align 4, !tbaa !12
  %25 = load ptr, ptr %10, align 8, !tbaa !3
  %26 = icmp eq ptr %25, null
  br i1 %26, label %27, label %28

27:                                               ; preds = %8
  store i32 -173, ptr %9, align 4
  store i32 1, ptr %24, align 4
  br label %111

28:                                               ; preds = %8
  %29 = load ptr, ptr %10, align 8, !tbaa !3
  %30 = getelementptr inbounds nuw %struct.WOLFSSL, ptr %29, i32 0, i32 46
  %31 = getelementptr inbounds nuw %struct.CipherSpecs, ptr %30, i32 0, i32 9
  %32 = load i8, ptr %31, align 1, !tbaa !84
  %33 = zext i8 %32 to i32
  store i32 %33, ptr %23, align 4, !tbaa !12
  %34 = load ptr, ptr %10, align 8, !tbaa !3
  %35 = getelementptr inbounds [13 x i8], ptr %19, i64 0, i64 0
  %36 = load i32, ptr %13, align 4, !tbaa !12
  %37 = load i32, ptr %15, align 4, !tbaa !12
  %38 = load i32, ptr %16, align 4, !tbaa !12
  %39 = load i32, ptr %17, align 4, !tbaa !12
  %40 = call i32 @TLS_hmac_SetInner(ptr noundef %34, ptr noundef %35, ptr noundef %20, i32 noundef %36, i32 noundef %37, i32 noundef %38, i32 noundef %39)
  store i32 %40, ptr %21, align 4, !tbaa !12
  %41 = load i32, ptr %21, align 4, !tbaa !12
  %42 = icmp ne i32 %41, 0
  br i1 %42, label %43, label %45

43:                                               ; preds = %28
  %44 = load i32, ptr %21, align 4, !tbaa !12
  store i32 %44, ptr %9, align 4
  store i32 1, ptr %24, align 4
  br label %111

45:                                               ; preds = %28
  %46 = load ptr, ptr %10, align 8, !tbaa !3
  %47 = getelementptr inbounds nuw %struct.WOLFSSL, ptr %46, i32 0, i32 12
  %48 = load ptr, ptr %47, align 16, !tbaa !52
  %49 = load ptr, ptr %10, align 8, !tbaa !3
  %50 = getelementptr inbounds nuw %struct.WOLFSSL, ptr %49, i32 0, i32 75
  %51 = load i32, ptr %50, align 4, !tbaa !53
  %52 = call i32 @wc_HmacInit(ptr noundef %18, ptr noundef %48, i32 noundef %51)
  store i32 %52, ptr %21, align 4, !tbaa !12
  %53 = load i32, ptr %21, align 4, !tbaa !12
  %54 = icmp ne i32 %53, 0
  br i1 %54, label %55, label %57

55:                                               ; preds = %45
  %56 = load i32, ptr %21, align 4, !tbaa !12
  store i32 %56, ptr %9, align 4
  store i32 1, ptr %24, align 4
  br label %111

57:                                               ; preds = %45
  %58 = load ptr, ptr %10, align 8, !tbaa !3
  %59 = load i32, ptr %16, align 4, !tbaa !12
  %60 = call ptr @wolfSSL_GetMacSecret(ptr noundef %58, i32 noundef %59)
  store ptr %60, ptr %22, align 8, !tbaa !8
  %61 = load ptr, ptr %10, align 8, !tbaa !3
  %62 = call i32 @wolfSSL_GetHmacType(ptr noundef %61)
  %63 = load ptr, ptr %22, align 8, !tbaa !8
  %64 = load ptr, ptr %10, align 8, !tbaa !3
  %65 = getelementptr inbounds nuw %struct.WOLFSSL, ptr %64, i32 0, i32 46
  %66 = getelementptr inbounds nuw %struct.CipherSpecs, ptr %65, i32 0, i32 9
  %67 = load i8, ptr %66, align 1, !tbaa !84
  %68 = zext i8 %67 to i32
  %69 = call i32 @wc_HmacSetKey(ptr noundef %18, i32 noundef %62, ptr noundef %63, i32 noundef %68)
  store i32 %69, ptr %21, align 4, !tbaa !12
  %70 = load i32, ptr %21, align 4, !tbaa !12
  %71 = icmp eq i32 %70, 0
  br i1 %71, label %72, label %109

72:                                               ; preds = %57
  %73 = load i32, ptr %16, align 4, !tbaa !12
  %74 = icmp ne i32 %73, 0
  br i1 %74, label %75, label %91

75:                                               ; preds = %72
  %76 = load i32, ptr %14, align 4, !tbaa !12
  %77 = icmp sge i32 %76, 0
  br i1 %77, label %78, label %91

78:                                               ; preds = %75
  %79 = load ptr, ptr %11, align 8, !tbaa !8
  %80 = load ptr, ptr %12, align 8, !tbaa !8
  %81 = load i32, ptr %13, align 4, !tbaa !12
  %82 = load i32, ptr %23, align 4, !tbaa !12
  %83 = add i32 %81, %82
  %84 = load i32, ptr %14, align 4, !tbaa !12
  %85 = add i32 %83, %84
  %86 = add i32 %85, 1
  %87 = load i32, ptr %23, align 4, !tbaa !12
  %88 = getelementptr inbounds [13 x i8], ptr %19, i64 0, i64 0
  %89 = load i32, ptr %20, align 4, !tbaa !12
  %90 = call i32 @Hmac_UpdateFinal_CT(ptr noundef %18, ptr noundef %79, ptr noundef %80, i32 noundef %86, i32 noundef %87, ptr noundef %88, i32 noundef %89)
  store i32 %90, ptr %21, align 4, !tbaa !12
  br label %108

91:                                               ; preds = %75, %72
  %92 = getelementptr inbounds [13 x i8], ptr %19, i64 0, i64 0
  %93 = load i32, ptr %20, align 4, !tbaa !12
  %94 = call i32 @wc_HmacUpdate(ptr noundef %18, ptr noundef %92, i32 noundef %93)
  store i32 %94, ptr %21, align 4, !tbaa !12
  %95 = load i32, ptr %21, align 4, !tbaa !12
  %96 = icmp eq i32 %95, 0
  br i1 %96, label %97, label %101

97:                                               ; preds = %91
  %98 = load ptr, ptr %12, align 8, !tbaa !8
  %99 = load i32, ptr %13, align 4, !tbaa !12
  %100 = call i32 @wc_HmacUpdate(ptr noundef %18, ptr noundef %98, i32 noundef %99)
  store i32 %100, ptr %21, align 4, !tbaa !12
  br label %101

101:                                              ; preds = %97, %91
  %102 = load i32, ptr %21, align 4, !tbaa !12
  %103 = icmp eq i32 %102, 0
  br i1 %103, label %104, label %107

104:                                              ; preds = %101
  %105 = load ptr, ptr %11, align 8, !tbaa !8
  %106 = call i32 @wc_HmacFinal(ptr noundef %18, ptr noundef %105)
  store i32 %106, ptr %21, align 4, !tbaa !12
  br label %107

107:                                              ; preds = %104, %101
  br label %108

108:                                              ; preds = %107, %78
  br label %109

109:                                              ; preds = %108, %57
  call void @wc_HmacFree(ptr noundef %18)
  %110 = load i32, ptr %21, align 4, !tbaa !12
  store i32 %110, ptr %9, align 4
  store i32 1, ptr %24, align 4
  br label %111

111:                                              ; preds = %109, %55, %43, %27
  call void @llvm.lifetime.end.p0(i64 4, ptr %23) #8
  call void @llvm.lifetime.end.p0(i64 8, ptr %22) #8
  call void @llvm.lifetime.end.p0(i64 4, ptr %21) #8
  call void @llvm.lifetime.end.p0(i64 4, ptr %20) #8
  call void @llvm.lifetime.end.p0(i64 13, ptr %19) #8
  call void @llvm.lifetime.end.p0(i64 784, ptr %18) #8
  %112 = load i32, ptr %9, align 4
  ret i32 %112
}