; Function Attrs: nounwind uwtable
define i32 @TLS_hmac(ptr noundef %0, ptr noundef %1, ptr noundef %2, i32 noundef %3, i32 noundef %4, i32 noundef %5, i32 noundef %6, i32 noundef %7) local_unnamed_addr #0 {
  %9 = alloca %struct.Hmac, align 16
  %10 = alloca [13 x i8], align 1
  call void @llvm.lifetime.start.p0(i64 784, ptr nonnull %9) #17
  call void @llvm.lifetime.start.p0(i64 13, ptr nonnull %10) #17
  %11 = icmp eq ptr %0, null
  br i1 %11, label %TLS_hmac_SetInner.exit, label %12

12:                                               ; preds = %8
  %13 = getelementptr inbounds nuw i8, ptr %0, i64 727
  %14 = load i8, ptr %13, align 1, !tbaa !68
  %15 = zext i8 %14 to i32
  %16 = icmp eq i32 %5, 25
  br i1 %16, label %TLS_hmac_SetInner.exit, label %17

17:                                               ; preds = %12
  %18 = getelementptr inbounds nuw i8, ptr %0, i64 1024
  %19 = load i64, ptr %18, align 8
  %20 = and i64 %19, 131072
  %.not.i = icmp eq i64 %20, 0
  %21 = select i1 %.not.i, i32 %6, i32 %7
  call void @llvm.memset.p0.i64(ptr noundef nonnull align 1 dereferenceable(13) %10, i8 0, i64 13, i1 false)
  call void @WriteSEQ(ptr noundef nonnull %0, i32 noundef %21, ptr noundef nonnull %10) #17
  %22 = trunc i32 %5 to i8
  %23 = getelementptr inbounds nuw i8, ptr %10, i64 8
  store i8 %22, ptr %23, align 1, !tbaa !51
  %24 = getelementptr inbounds nuw i8, ptr %0, i64 710
  %25 = load i8, ptr %24, align 2, !tbaa !75
  %26 = getelementptr inbounds nuw i8, ptr %10, i64 9
  store i8 %25, ptr %26, align 1, !tbaa !51
  %27 = getelementptr inbounds nuw i8, ptr %0, i64 711
  %28 = load i8, ptr %27, align 1, !tbaa !76
  %29 = getelementptr inbounds nuw i8, ptr %10, i64 10
  store i8 %28, ptr %29, align 1, !tbaa !51
  %30 = getelementptr inbounds nuw i8, ptr %10, i64 11
  %31 = lshr i32 %3, 8
  %32 = trunc i32 %31 to i8
  store i8 %32, ptr %30, align 1, !tbaa !51
  %33 = trunc i32 %3 to i8
  %34 = getelementptr inbounds nuw i8, ptr %10, i64 12
  store i8 %33, ptr %34, align 1, !tbaa !51
  %35 = getelementptr inbounds nuw i8, ptr %0, i64 176
  %36 = load ptr, ptr %35, align 16, !tbaa !46
  %37 = getelementptr inbounds nuw i8, ptr %0, i64 1204
  %38 = load i32, ptr %37, align 4, !tbaa !47
  %39 = call i32 @wc_HmacInit(ptr noundef nonnull %9, ptr noundef %36, i32 noundef %38) #17
  %.not41 = icmp eq i32 %39, 0
  br i1 %.not41, label %40, label %TLS_hmac_SetInner.exit

40:                                               ; preds = %17
  %41 = call ptr @wolfSSL_GetMacSecret(ptr noundef nonnull %0, i32 noundef %6) #17
  %42 = getelementptr inbounds nuw i8, ptr %0, i64 724
  %43 = load i8, ptr %42, align 2, !tbaa !74
  %switch.tableidx = add i8 %43, -1
  %44 = icmp ult i8 %switch.tableidx, 5
  br i1 %44, label %switch.lookup, label %wolfSSL_GetHmacType.exit

switch.lookup:                                    ; preds = %40
  %45 = zext nneg i8 %switch.tableidx to i64
  %switch.gep = getelementptr inbounds nuw [5 x i32], ptr @switch.table.TLS_hmac, i64 0, i64 %45
  %switch.load = load i32, ptr %switch.gep, align 4
  br label %wolfSSL_GetHmacType.exit

wolfSSL_GetHmacType.exit:                         ; preds = %40, %switch.lookup
  %.0.i = phi i32 [ %switch.load, %switch.lookup ], [ -1, %40 ]
  %46 = load i8, ptr %13, align 1, !tbaa !68
  %47 = zext i8 %46 to i32
  %48 = call i32 @wc_HmacSetKey(ptr noundef nonnull %9, i32 noundef %.0.i, ptr noundef %41, i32 noundef %47) #17
  %49 = icmp eq i32 %48, 0
  br i1 %49, label %50, label %.thread

50:                                               ; preds = %wolfSSL_GetHmacType.exit
  %51 = icmp ne i32 %6, 0
  %52 = icmp sgt i32 %4, -1
  %or.cond = and i1 %52, %51
  br i1 %or.cond, label %53, label %58

53:                                               ; preds = %50
  %54 = add i32 %3, 1
  %55 = add i32 %54, %4
  %56 = add i32 %55, %15
  %57 = call fastcc i32 @Hmac_UpdateFinal_CT(ptr noundef %9, ptr noundef %1, ptr noundef %2, i32 noundef %56, i32 noundef %15, ptr noundef %10, i32 noundef 13)
  br label %.thread

58:                                               ; preds = %50
  %59 = call i32 @wc_HmacUpdate(ptr noundef nonnull %9, ptr noundef nonnull %10, i32 noundef 13) #17
  %60 = icmp eq i32 %59, 0
  br i1 %60, label %61, label %.thread

61:                                               ; preds = %58
  %62 = call i32 @wc_HmacUpdate(ptr noundef nonnull %9, ptr noundef %2, i32 noundef %3) #17
  %63 = icmp eq i32 %62, 0
  br i1 %63, label %64, label %.thread

64:                                               ; preds = %61
  %65 = call i32 @wc_HmacFinal(ptr noundef nonnull %9, ptr noundef %1) #17
  br label %.thread

.thread:                                          ; preds = %58, %53, %64, %61, %wolfSSL_GetHmacType.exit
  %.0 = phi i32 [ %57, %53 ], [ %65, %64 ], [ %62, %61 ], [ %48, %wolfSSL_GetHmacType.exit ], [ %59, %58 ]
  call void @wc_HmacFree(ptr noundef nonnull %9) #17
  br label %TLS_hmac_SetInner.exit

TLS_hmac_SetInner.exit:                           ; preds = %12, %17, %8, %.thread
  %.034 = phi i32 [ %.0, %.thread ], [ -173, %8 ], [ %39, %17 ], [ -173, %12 ]
  call void @llvm.lifetime.end.p0(i64 13, ptr nonnull %10) #17
  call void @llvm.lifetime.end.p0(i64 784, ptr nonnull %9) #17
  ret i32 %.034
}